target datalayout = "e-m:e-p270:32:32-p271:32:32-p272:64:64-i64:64-i128:128-f80:128-n8:16:32:64-S128"
target triple = "x86_64-pc-linux-gnu"

%struct.buffer_s = type { ptr, i64 }
%struct.Range = type { ptr, i64 }
%struct.ZSTD_customMem = type { ptr, ptr, ptr }
%struct.ZSTD_CCtx_params_s = type { i32, %struct.ZSTD_compressionParameters, %struct.ZSTD_frameParameters, i32, i32, i64, i32, i32, i32, i32, i64, i32, i32, %struct.ldmParams_t, i32, i32, i32, i32, i32, i32, i32, i64, i32, i32, %struct.ZSTD_customMem, i32, i32, ptr, ptr, i32 }
%struct.ZSTD_compressionParameters = type { i32, i32, i32, i32, i32, i32, i32 }
%struct.ZSTD_frameParameters = type { i32, i32, i32 }
%struct.ldmParams_t = type { i32, i32, i32, i32, i32, i32 }
%union.pthread_mutex_t = type { %struct.__pthread_mutex_s }
%struct.__pthread_mutex_s = type { i32, i32, i32, i32, i32, i16, i16, %struct.__pthread_internal_list }
%struct.__pthread_internal_list = type { ptr, ptr }
%union.pthread_cond_t = type { %struct.__pthread_cond_s }
%struct.__pthread_cond_s = type { %union.__atomic_wide_counter, %union.__atomic_wide_counter, [2 x i32], [2 x i32], i32, i32, [2 x i32] }
%union.__atomic_wide_counter = type { i64 }
%struct.ZSTDMT_jobDescription = type { i64, i64, %union.pthread_mutex_t, %union.pthread_cond_t, ptr, ptr, ptr, ptr, %struct.buffer_s, %struct.Range, %struct.Range, i32, i32, i32, %struct.ZSTD_CCtx_params_s, ptr, i64, i64, i32 }

; Function Attrs: inlinehint nounwind uwtable
define internal void @ZSTD_customFree(ptr noundef %0, ptr noundef byval(%struct.ZSTD_customMem) align 8 %1) #1 {
  %3 = alloca ptr, align 8
  store ptr %0, ptr %3, align 8, !tbaa !16
  %4 = load ptr, ptr %3, align 8, !tbaa !16
  %5 = icmp ne ptr %4, null
  br i1 %5, label %6, label %19

6:                                                ; preds = %2
  %7 = getelementptr inbounds nuw %struct.ZSTD_customMem, ptr %1, i32 0, i32 1
  %8 = load ptr, ptr %7, align 8, !tbaa !12
  %9 = icmp ne ptr %8, null
  br i1 %9, label %10, label %16

10:                                               ; preds = %6
  %11 = getelementptr inbounds nuw %struct.ZSTD_customMem, ptr %1, i32 0, i32 1
  %12 = load ptr, ptr %11, align 8, !tbaa !12
  %13 = getelementptr inbounds nuw %struct.ZSTD_customMem, ptr %1, i32 0, i32 2
  %14 = load ptr, ptr %13, align 8, !tbaa !72
  %15 = load ptr, ptr %3, align 8, !tbaa !16
  call void %12(ptr noundef %14, ptr noundef %15)
  br label %18

16:                                               ; preds = %6
  %17 = load ptr, ptr %3, align 8, !tbaa !16
  call void @free(ptr noundef %17) #11
  br label %18

18:                                               ; preds = %16, %10
  br label %19

19:                                               ; preds = %18, %2
  ret void
}

; Function Attrs: inlinehint nounwind uwtable
define internal i32 @ZSTD_countLeadingZeros32(i32 noundef %0) #1 {
  %2 = alloca i32, align 4
  store i32 %0, ptr %2, align 4, !tbaa !3
  %3 = load i32, ptr %2, align 4, !tbaa !3
  %4 = call i32 @llvm.ctlz.i32(i32 %3, i1 true)
  ret i32 %4
}

; Function Attrs: nounwind uwtable
define internal void @ZSTDMT_freeJobsTable(ptr noundef %0, i32 noundef %1, ptr noundef byval(%struct.ZSTD_customMem) align 8 %2) #0 {
  %4 = alloca ptr, align 8
  %5 = alloca i32, align 4
  %6 = alloca i32, align 4
  %7 = alloca i32, align 4
  store ptr %0, ptr %4, align 8, !tbaa !16
  store i32 %1, ptr %5, align 4, !tbaa !3
  call void @llvm.lifetime.start.p0(i64 4, ptr %6) #11
  %8 = load ptr, ptr %4, align 8, !tbaa !16
  %9 = icmp eq ptr %8, null
  br i1 %9, label %10, label %11

10:                                               ; preds = %3
  store i32 1, ptr %7, align 4
  br label %34

11:                                               ; preds = %3
  store i32 0, ptr %6, align 4, !tbaa !3
  br label %12

12:                                               ; preds = %29, %11
  %13 = load i32, ptr %6, align 4, !tbaa !3
  %14 = load i32, ptr %5, align 4, !tbaa !3
  %15 = icmp ult i32 %13, %14
  br i1 %15, label %16, label %32

16:                                               ; preds = %12
  %17 = load ptr, ptr %4, align 8, !tbaa !16
  %18 = load i32, ptr %6, align 4, !tbaa !3
  %19 = zext i32 %18 to i64
  %20 = getelementptr inbounds nuw %struct.ZSTDMT_jobDescription, ptr %17, i64 %19
  %21 = getelementptr inbounds nuw %struct.ZSTDMT_jobDescription, ptr %20, i32 0, i32 2
  %22 = call i32 @pthread_mutex_destroy(ptr noundef %21) #11
  %23 = load ptr, ptr %4, align 8, !tbaa !16
  %24 = load i32, ptr %6, align 4, !tbaa !3
  %25 = zext i32 %24 to i64
  %26 = getelementptr inbounds nuw %struct.ZSTDMT_jobDescription, ptr %23, i64 %25
  %27 = getelementptr inbounds nuw %struct.ZSTDMT_jobDescription, ptr %26, i32 0, i32 3
  %28 = call i32 @pthread_cond_destroy(ptr noundef %27) #11
  br label %29

29:                                               ; preds = %16
  %30 = load i32, ptr %6, align 4, !tbaa !3
  %31 = add i32 %30, 1
  store i32 %31, ptr %6, align 4, !tbaa !3
  br label %12, !llvm.loop !55

32:                                               ; preds = %12
  %33 = load ptr, ptr %4, align 8, !tbaa !16
  call void @ZSTD_customFree(ptr noundef %33, ptr noundef byval(%struct.ZSTD_customMem) align 8 %2)
  store i32 0, ptr %7, align 4
  br label %34

34:                                               ; preds = %32, %10
  call void @llvm.lifetime.end.p0(i64 4, ptr %6) #11
  %35 = load i32, ptr %7, align 4
  switch i32 %35, label %37 [
    i32 0, label %36
    i32 1, label %36
  ]

36:                                               ; preds = %34, %34
  ret void

37:                                               ; preds = %34
  unreachable
}

; Function Attrs: inlinehint nounwind uwtable
define internal ptr @ZSTD_customCalloc(i64 noundef %0, ptr noundef byval(%struct.ZSTD_customMem) align 8 %1) #1 {
  %3 = alloca ptr, align 8
  %4 = alloca i64, align 8
  %5 = alloca ptr, align 8
  store i64 %0, ptr %4, align 8, !tbaa !45
  %6 = getelementptr inbounds nuw %struct.ZSTD_customMem, ptr %1, i32 0, i32 0
  %7 = load ptr, ptr %6, align 8, !tbaa !10
  %8 = icmp ne ptr %7, null
  br i1 %8, label %9, label %19

9:                                                ; preds = %2
  call void @llvm.lifetime.start.p0(i64 8, ptr %5) #11
  %10 = getelementptr inbounds nuw %struct.ZSTD_customMem, ptr %1, i32 0, i32 0
  %11 = load ptr, ptr %10, align 8, !tbaa !10
  %12 = getelementptr inbounds nuw %struct.ZSTD_customMem, ptr %1, i32 0, i32 2
  %13 = load ptr, ptr %12, align 8, !tbaa !72
  %14 = load i64, ptr %4, align 8, !tbaa !45
  %15 = call ptr %11(ptr noundef %13, i64 noundef %14)
  store ptr %15, ptr %5, align 8, !tbaa !16
  %16 = load ptr, ptr %5, align 8, !tbaa !16
  %17 = load i64, ptr %4, align 8, !tbaa !45
  call void @llvm.memset.p0.i64(ptr align 1 %16, i8 0, i64 %17, i1 false)
  %18 = load ptr, ptr %5, align 8, !tbaa !16
  store ptr %18, ptr %3, align 8
  call void @llvm.lifetime.end.p0(i64 8, ptr %5) #11
  br label %22

19:                                               ; preds = %2
  %20 = load i64, ptr %4, align 8, !tbaa !45
  %21 = call noalias ptr @calloc(i64 noundef 1, i64 noundef %20) #14
  store ptr %21, ptr %3, align 8
  br label %22

22:                                               ; preds = %19, %9
  %23 = load ptr, ptr %3, align 8
  ret ptr %23
}

; Function Attrs: inlinehint nounwind uwtable
define internal i32 @ZSTD_highbit32(i32 noundef %0) #1 {
  %2 = alloca i32, align 4
  store i32 %0, ptr %2, align 4, !tbaa !3
  %3 = load i32, ptr %2, align 4, !tbaa !3
  %4 = call i32 @ZSTD_countLeadingZeros32(i32 noundef %3)
  %5 = sub i32 31, %4
  ret i32 %5
}

; Function Attrs: nounwind uwtable
define internal ptr @ZSTDMT_createJobsTable(ptr noundef %0, ptr noundef byval(%struct.ZSTD_customMem) align 8 %1) #0 {
  %3 = alloca ptr, align 8
  %4 = alloca ptr, align 8
  %5 = alloca i32, align 4
  %6 = alloca i32, align 4
  %7 = alloca i32, align 4
  %8 = alloca ptr, align 8
  %9 = alloca i32, align 4
  %10 = alloca i32, align 4
  store ptr %0, ptr %4, align 8, !tbaa !172
  call void @llvm.lifetime.start.p0(i64 4, ptr %5) #11
  %11 = load ptr, ptr %4, align 8, !tbaa !172
  %12 = load i32, ptr %11, align 4, !tbaa !3
  %13 = call i32 @ZSTD_highbit32(i32 noundef %12)
  %14 = add i32 %13, 1
  store i32 %14, ptr %5, align 4, !tbaa !3
  call void @llvm.lifetime.start.p0(i64 4, ptr %6) #11
  %15 = load i32, ptr %5, align 4, !tbaa !3
  %16 = shl i32 1, %15
  store i32 %16, ptr %6, align 4, !tbaa !3
  call void @llvm.lifetime.start.p0(i64 4, ptr %7) #11
  call void @llvm.lifetime.start.p0(i64 8, ptr %8) #11
  %17 = load i32, ptr %6, align 4, !tbaa !3
  %18 = zext i32 %17 to i64
  %19 = mul i64 %18, 456
  %20 = call ptr @ZSTD_customCalloc(i64 noundef %19, ptr noundef byval(%struct.ZSTD_customMem) align 8 %1)
  store ptr %20, ptr %8, align 8, !tbaa !16
  call void @llvm.lifetime.start.p0(i64 4, ptr %9) #11
  store i32 0, ptr %9, align 4, !tbaa !3
  %21 = load ptr, ptr %8, align 8, !tbaa !16
  %22 = icmp eq ptr %21, null
  br i1 %22, label %23, label %24

23:                                               ; preds = %2
  store ptr null, ptr %3, align 8
  store i32 1, ptr %10, align 4
  br label %59

24:                                               ; preds = %2
  %25 = load i32, ptr %6, align 4, !tbaa !3
  %26 = load ptr, ptr %4, align 8, !tbaa !172
  store i32 %25, ptr %26, align 4, !tbaa !3
  store i32 0, ptr %7, align 4, !tbaa !3
  br label %27

27:                                               ; preds = %48, %24
  %28 = load i32, ptr %7, align 4, !tbaa !3
  %29 = load i32, ptr %6, align 4, !tbaa !3
  %30 = icmp ult i32 %28, %29
  br i1 %30, label %31, label %51

31:                                               ; preds = %27
  %32 = load ptr, ptr %8, align 8, !tbaa !16
  %33 = load i32, ptr %7, align 4, !tbaa !3
  %34 = zext i32 %33 to i64
  %35 = getelementptr inbounds nuw %struct.ZSTDMT_jobDescription, ptr %32, i64 %34
  %36 = getelementptr inbounds nuw %struct.ZSTDMT_jobDescription, ptr %35, i32 0, i32 2
  %37 = call i32 @pthread_mutex_init(ptr noundef %36, ptr noundef null) #11
  %38 = load i32, ptr %9, align 4, !tbaa !3
  %39 = or i32 %38, %37
  store i32 %39, ptr %9, align 4, !tbaa !3
  %40 = load ptr, ptr %8, align 8, !tbaa !16
  %41 = load i32, ptr %7, align 4, !tbaa !3
  %42 = zext i32 %41 to i64
  %43 = getelementptr inbounds nuw %struct.ZSTDMT_jobDescription, ptr %40, i64 %42
  %44 = getelementptr inbounds nuw %struct.ZSTDMT_jobDescription, ptr %43, i32 0, i32 3
  %45 = call i32 @pthread_cond_init(ptr noundef %44, ptr noundef null) #11
  %46 = load i32, ptr %9, align 4, !tbaa !3
  %47 = or i32 %46, %45
  store i32 %47, ptr %9, align 4, !tbaa !3
  br label %48

48:                                               ; preds = %31
  %49 = load i32, ptr %7, align 4, !tbaa !3
  %50 = add i32 %49, 1
  store i32 %50, ptr %7, align 4, !tbaa !3
  br label %27, !llvm.loop !174

51:                                               ; preds = %27
  %52 = load i32, ptr %9, align 4, !tbaa !3
  %53 = icmp ne i32 %52, 0
  br i1 %53, label %54, label %57

54:                                               ; preds = %51
  %55 = load ptr, ptr %8, align 8, !tbaa !16
  %56 = load i32, ptr %6, align 4, !tbaa !3
  call void @ZSTDMT_freeJobsTable(ptr noundef %55, i32 noundef %56, ptr noundef byval(%struct.ZSTD_customMem) align 8 %1)
  store ptr null, ptr %3, align 8
  store i32 1, ptr %10, align 4
  br label %59

57:                                               ; preds = %51
  %58 = load ptr, ptr %8, align 8, !tbaa !16
  store ptr %58, ptr %3, align 8
  store i32 1, ptr %10, align 4
  br label %59

59:                                               ; preds = %57, %54, %23
  call void @llvm.lifetime.end.p0(i64 4, ptr %9) #11
  call void @llvm.lifetime.end.p0(i64 8, ptr %8) #11
  call void @llvm.lifetime.end.p0(i64 4, ptr %7) #11
  call void @llvm.lifetime.end.p0(i64 4, ptr %6) #11
  call void @llvm.lifetime.end.p0(i64 4, ptr %5) #11
  %60 = load ptr, ptr %3, align 8
  ret ptr %60
}