; Function Attrs: nounwind uwtable
define internal fastcc noundef ptr @ZSTDMT_createJobsTable(ptr noundef nonnull captures(none) %0, ptr noundef readonly byval(%struct.ZSTD_customMem) align 8 captures(none) %1) unnamed_addr #0 {
  %3 = load i32, ptr %0, align 4, !tbaa !3
  %4 = tail call range(i32 0, 32) i32 @llvm.ctlz.i32(i32 %3, i1 true)
  %5 = xor i32 %4, 31
  %6 = shl nuw i32 2, %5
  %7 = sub nuw nsw i32 32, %4
  %8 = zext nneg i32 %7 to i64
  %9 = shl nuw nsw i64 456, %8
  %.val = load ptr, ptr %1, align 8, !tbaa !7
  %10 = getelementptr inbounds nuw i8, ptr %1, i64 16
  %.not.i = icmp eq ptr %.val, null
  br i1 %.not.i, label %13, label %11

11:                                               ; preds = %2
  %.val23 = load ptr, ptr %10, align 8
  %12 = tail call ptr %.val(ptr noundef %.val23, i64 noundef range(i64 -17179869184, 1958505086521) %9) #14
  tail call void @llvm.memset.p0.i64(ptr noundef nonnull align 1 dereferenceable(1) %12, i8 0, i64 range(i64 -17179869184, 1958505086521) %9, i1 false)
  br label %ZSTD_customCalloc.exit

13:                                               ; preds = %2
  %14 = tail call noalias ptr @calloc(i64 noundef 1, i64 noundef range(i64 -17179869184, 1958505086521) %9) #15
  br label %ZSTD_customCalloc.exit

ZSTD_customCalloc.exit:                           ; preds = %11, %13
  %.0.i = phi ptr [ %12, %11 ], [ %14, %13 ]
  %15 = icmp eq ptr %.0.i, null
  br i1 %15, label %ZSTDMT_freeJobsTable.exit, label %16

16:                                               ; preds = %ZSTD_customCalloc.exit
  store i32 %6, ptr %0, align 4, !tbaa !3
  %wide.trip.count = zext i32 %6 to i64
  br label %17

17:                                               ; preds = %16, %17
  %indvars.iv = phi i64 [ 0, %16 ], [ %indvars.iv.next, %17 ]
  %.028 = phi i32 [ 0, %16 ], [ %24, %17 ]
  %18 = getelementptr inbounds nuw %struct.ZSTDMT_jobDescription, ptr %.0.i, i64 %indvars.iv
  %19 = getelementptr inbounds nuw i8, ptr %18, i64 16
  %20 = tail call i32 @pthread_mutex_init(ptr noundef nonnull %19, ptr noundef null) #14
  %21 = getelementptr inbounds nuw i8, ptr %18, i64 56
  %22 = tail call i32 @pthread_cond_init(ptr noundef nonnull %21, ptr noundef null) #14
  %23 = or i32 %20, %.028
  %24 = or i32 %23, %22
  %indvars.iv.next = add nuw nsw i64 %indvars.iv, 1
  %exitcond.not = icmp eq i64 %indvars.iv.next, %wide.trip.count
  br i1 %exitcond.not, label %25, label %17, !llvm.loop !158

25:                                               ; preds = %17
  %.not = icmp eq i32 %24, 0
  br i1 %.not, label %ZSTDMT_freeJobsTable.exit, label %.preheader.i

.preheader.i:                                     ; preds = %25
  %26 = getelementptr inbounds nuw i8, ptr %1, i64 8
  %.val24 = load ptr, ptr %26, align 8
  %.val25 = load ptr, ptr %10, align 8
  br label %.lr.ph.i

.lr.ph.i:                                         ; preds = %.lr.ph.i, %.preheader.i
  %indvars.iv.i = phi i64 [ 0, %.preheader.i ], [ %indvars.iv.next.i, %.lr.ph.i ]
  %27 = getelementptr inbounds nuw %struct.ZSTDMT_jobDescription, ptr %.0.i, i64 %indvars.iv.i
  %28 = getelementptr inbounds nuw i8, ptr %27, i64 16
  %29 = tail call i32 @pthread_mutex_destroy(ptr noundef nonnull %28) #14
  %30 = getelementptr inbounds nuw i8, ptr %27, i64 56
  %31 = tail call i32 @pthread_cond_destroy(ptr noundef nonnull %30) #14
  %indvars.iv.next.i = add nuw nsw i64 %indvars.iv.i, 1
  %exitcond.not.i = icmp eq i64 %indvars.iv.next.i, %wide.trip.count
  br i1 %exitcond.not.i, label %._crit_edge.i, label %.lr.ph.i, !llvm.loop !43

._crit_edge.i:                                    ; preds = %.lr.ph.i
  %.not4.i.i = icmp eq ptr %.val24, null
  br i1 %.not4.i.i, label %33, label %32

32:                                               ; preds = %._crit_edge.i
  tail call void %.val24(ptr noundef %.val25, ptr noundef nonnull %.0.i) #14
  br label %ZSTDMT_freeJobsTable.exit

33:                                               ; preds = %._crit_edge.i
  tail call void @free(ptr noundef nonnull %.0.i) #14
  br label %ZSTDMT_freeJobsTable.exit

ZSTDMT_freeJobsTable.exit:                        ; preds = %33, %32, %25, %ZSTD_customCalloc.exit
  %.019 = phi ptr [ null, %ZSTD_customCalloc.exit ], [ %.0.i, %25 ], [ null, %32 ], [ null, %33 ]
  ret ptr %.019
}